; Function Attrs: mustprogress uwtable
define internal void @_ZL19buffer_verify_errorP11hb_buffer_tP9hb_font_tPKcz(ptr noundef %0, ptr noundef %1, ptr noundef %2, ...) unnamed_addr #0 {
  %4 = alloca [1 x %struct.__va_list_tag], align 16
  call void @llvm.va_start.p0(ptr nonnull %4)
  %5 = getelementptr inbounds i8, ptr %0, i64 192
  %6 = load ptr, ptr %5, align 8
  %.not = icmp eq ptr %6, null
  br i1 %.not, label %9, label %7

7:                                                ; preds = %3
  %8 = call noundef zeroext i1 @_ZN11hb_buffer_t12message_implEP9hb_font_tPKcP13__va_list_tag(ptr noundef nonnull align 8 dereferenceable(220) %0, ptr noundef %1, ptr noundef %2, ptr noundef nonnull %4)
  br label %15

9:                                                ; preds = %3
  %10 = load ptr, ptr @stderr, align 8
  %11 = call i64 @fwrite(ptr nonnull @.str.4, i64 9, i64 1, ptr %10) #11
  %12 = load ptr, ptr @stderr, align 8
  %13 = call i32 @vfprintf(ptr noundef %12, ptr noundef %2, ptr noundef nonnull %4) #12
  %14 = load ptr, ptr @stderr, align 8
  %fputc = call i32 @fputc(i32 10, ptr %14)
  br label %15

15:                                               ; preds = %9, %7
  call void @llvm.va_end.p0(ptr nonnull %4)
  ret void
}